target datalayout = "e-m:e-p270:32:32-p271:32:32-p272:64:64-i64:64-i128:128-f80:128-n8:16:32:64-S128"
target triple = "x86_64-pc-linux-gnu"

; Function Attrs: alwaysinline nounwind
define internal ptr @memcpy.inline(ptr noalias nonnull %0, ptr noalias nonnull %1, i64 %2) #5 {
  %4 = alloca ptr, align 8
  %5 = alloca ptr, align 8
  %6 = alloca i64, align 8
  store ptr %0, ptr %4, align 8
  store ptr %1, ptr %5, align 8
  store i64 %2, ptr %6, align 8
  %7 = load ptr, ptr %4, align 8
  %8 = load ptr, ptr %5, align 8
  %9 = load i64, ptr %6, align 8
  %10 = load ptr, ptr %4, align 8
  %11 = call i64 @llvm.objectsize.i64.p0(ptr %10, i1 false, i1 true, i1 true)
  %12 = call ptr @__memcpy_chk(ptr noundef %7, ptr noundef %8, i64 noundef %9, i64 noundef %11) #8
  ret ptr %12
}

; Function Attrs: inlinehint nounwind ssp uwtable
define internal void @blkxor(ptr noundef %0, ptr noundef %1, i64 noundef %2) #4 {
  %4 = alloca ptr, align 8
  %5 = alloca ptr, align 8
  %6 = alloca i64, align 8
  %7 = alloca i64, align 8
  store ptr %0, ptr %4, align 8
  store ptr %1, ptr %5, align 8
  store i64 %2, ptr %6, align 8
  call void @llvm.lifetime.start.p0(i64 8, ptr %7) #8
  store i64 0, ptr %7, align 8
  br label %8

8:                                                ; preds = %23, %3
  %9 = load i64, ptr %7, align 8
  %10 = load i64, ptr %6, align 8
  %11 = mul i64 %10, 16
  %12 = icmp ult i64 %9, %11
  br i1 %12, label %13, label %26

13:                                               ; preds = %8
  %14 = load ptr, ptr %5, align 8
  %15 = load i64, ptr %7, align 8
  %16 = getelementptr i32, ptr %14, i64 %15
  %17 = load i32, ptr %16, align 4
  %18 = load ptr, ptr %4, align 8
  %19 = load i64, ptr %7, align 8
  %20 = getelementptr i32, ptr %18, i64 %19
  %21 = load i32, ptr %20, align 4
  %22 = xor i32 %21, %17
  store i32 %22, ptr %20, align 4
  br label %23

23:                                               ; preds = %13
  %24 = load i64, ptr %7, align 8
  %25 = add i64 %24, 1
  store i64 %25, ptr %7, align 8
  br label %8, !llvm.loop !11

26:                                               ; preds = %8
  call void @llvm.lifetime.end.p0(i64 8, ptr %7) #8
  ret void
}

; Function Attrs: inlinehint nounwind ssp uwtable
define internal void @blkcpy(ptr noundef %0, ptr noundef %1, i64 noundef %2) #4 {
  %4 = alloca ptr, align 8
  %5 = alloca ptr, align 8
  %6 = alloca i64, align 8
  store ptr %0, ptr %4, align 8
  store ptr %1, ptr %5, align 8
  store i64 %2, ptr %6, align 8
  %7 = load ptr, ptr %4, align 8
  %8 = load ptr, ptr %5, align 8
  %9 = load i64, ptr %6, align 8
  %10 = mul i64 %9, 64
  %11 = call ptr @memcpy.inline(ptr noundef %7, ptr noundef %8, i64 noundef %10) #8
  ret void
}

; Function Attrs: nounwind ssp uwtable
define internal void @blockmix_salsa8(ptr noundef %0, ptr noundef %1, ptr noundef %2, i64 noundef %3) #0 {
  %5 = alloca ptr, align 8
  %6 = alloca ptr, align 8
  %7 = alloca ptr, align 8
  %8 = alloca i64, align 8
  %9 = alloca i64, align 8
  store ptr %0, ptr %5, align 8
  store ptr %1, ptr %6, align 8
  store ptr %2, ptr %7, align 8
  store i64 %3, ptr %8, align 8
  call void @llvm.lifetime.start.p0(i64 8, ptr %9) #8
  %10 = load ptr, ptr %7, align 8
  %11 = load ptr, ptr %5, align 8
  %12 = load i64, ptr %8, align 8
  %13 = mul i64 2, %12
  %14 = sub i64 %13, 1
  %15 = mul i64 %14, 16
  %16 = getelementptr i32, ptr %11, i64 %15
  call void @blkcpy(ptr noundef %10, ptr noundef %16, i64 noundef 1)
  store i64 0, ptr %9, align 8
  br label %17

17:                                               ; preds = %49, %4
  %18 = load i64, ptr %9, align 8
  %19 = load i64, ptr %8, align 8
  %20 = mul i64 2, %19
  %21 = icmp ult i64 %18, %20
  br i1 %21, label %22, label %52

22:                                               ; preds = %17
  %23 = load ptr, ptr %7, align 8
  %24 = load ptr, ptr %5, align 8
  %25 = load i64, ptr %9, align 8
  %26 = mul i64 %25, 16
  %27 = getelementptr i32, ptr %24, i64 %26
  call void @blkxor(ptr noundef %23, ptr noundef %27, i64 noundef 1)
  %28 = load ptr, ptr %7, align 8
  call void @salsa20_8(ptr noundef %28)
  %29 = load ptr, ptr %6, align 8
  %30 = load i64, ptr %9, align 8
  %31 = mul i64 %30, 8
  %32 = getelementptr i32, ptr %29, i64 %31
  %33 = load ptr, ptr %7, align 8
  call void @blkcpy(ptr noundef %32, ptr noundef %33, i64 noundef 1)
  %34 = load ptr, ptr %7, align 8
  %35 = load ptr, ptr %5, align 8
  %36 = load i64, ptr %9, align 8
  %37 = mul i64 %36, 16
  %38 = add i64 %37, 16
  %39 = getelementptr i32, ptr %35, i64 %38
  call void @blkxor(ptr noundef %34, ptr noundef %39, i64 noundef 1)
  %40 = load ptr, ptr %7, align 8
  call void @salsa20_8(ptr noundef %40)
  %41 = load ptr, ptr %6, align 8
  %42 = load i64, ptr %9, align 8
  %43 = mul i64 %42, 8
  %44 = load i64, ptr %8, align 8
  %45 = mul i64 %44, 16
  %46 = add i64 %43, %45
  %47 = getelementptr i32, ptr %41, i64 %46
  %48 = load ptr, ptr %7, align 8
  call void @blkcpy(ptr noundef %47, ptr noundef %48, i64 noundef 1)
  br label %49

49:                                               ; preds = %22
  %50 = load i64, ptr %9, align 8
  %51 = add i64 %50, 2
  store i64 %51, ptr %9, align 8
  br label %17, !llvm.loop !10

52:                                               ; preds = %17
  call void @llvm.lifetime.end.p0(i64 8, ptr %9) #8
  ret void
}