; Function Attrs: nofree nounwind ssp memory(argmem: readwrite) uwtable
define internal fastcc void @blockmix_salsa8(ptr noundef readonly captures(none) %0, ptr noundef %1, ptr noundef %2, i64 noundef range(i64 1, 4294967296) %3) unnamed_addr #4 {
  %5 = shl nuw nsw i64 %3, 1
  %.idx = shl nuw nsw i64 %3, 7
  %6 = getelementptr i8, ptr %0, i64 %.idx
  %7 = getelementptr i8, ptr %6, i64 -64
  tail call void @llvm.memcpy.p0.p0.i64(ptr noundef nonnull align 1 dereferenceable(64) %2, ptr noundef nonnull readonly align 1 dereferenceable(64) %7, i64 noundef range(i64 4, 549755813761) 64, i1 noundef false) #9
  %.idx20 = shl nuw nsw i64 %3, 6
  br label %8

8:                                                ; preds = %4, %blkxor.exit23
  %.025 = phi i64 [ 0, %4 ], [ %29, %blkxor.exit23 ]
  %9 = shl nuw nsw i64 %.025, 4
  %10 = getelementptr i32, ptr %0, i64 %9
  br label %11

11:                                               ; preds = %11, %8
  %.06.i = phi i64 [ 0, %8 ], [ %17, %11 ]
  %12 = getelementptr i32, ptr %10, i64 %.06.i
  %13 = load i32, ptr %12, align 4
  %14 = getelementptr i32, ptr %2, i64 %.06.i
  %15 = load i32, ptr %14, align 4
  %16 = xor i32 %15, %13
  store i32 %16, ptr %14, align 4
  %17 = add nuw nsw i64 %.06.i, 1
  %exitcond.not.i = icmp eq i64 %17, 16
  br i1 %exitcond.not.i, label %blkxor.exit, label %11, !llvm.loop !7

blkxor.exit:                                      ; preds = %11
  tail call fastcc void @salsa20_8(ptr noundef nonnull %2)
  %.idx24 = shl i64 %.025, 5
  %18 = getelementptr i8, ptr %1, i64 %.idx24
  tail call void @llvm.memcpy.p0.p0.i64(ptr noundef nonnull align 1 dereferenceable(64) %18, ptr noundef nonnull readonly align 1 dereferenceable(64) %2, i64 noundef range(i64 4, 549755813761) 64, i1 noundef false) #9
  %19 = or disjoint i64 %9, 16
  %20 = getelementptr i32, ptr %0, i64 %19
  br label %21

21:                                               ; preds = %21, %blkxor.exit
  %.06.i21 = phi i64 [ 0, %blkxor.exit ], [ %27, %21 ]
  %22 = getelementptr i32, ptr %20, i64 %.06.i21
  %23 = load i32, ptr %22, align 4
  %24 = getelementptr i32, ptr %2, i64 %.06.i21
  %25 = load i32, ptr %24, align 4
  %26 = xor i32 %25, %23
  store i32 %26, ptr %24, align 4
  %27 = add nuw nsw i64 %.06.i21, 1
  %exitcond.not.i22 = icmp eq i64 %27, 16
  br i1 %exitcond.not.i22, label %blkxor.exit23, label %21, !llvm.loop !7

blkxor.exit23:                                    ; preds = %21
  tail call fastcc void @salsa20_8(ptr noundef nonnull %2)
  %28 = getelementptr i8, ptr %18, i64 %.idx20
  tail call void @llvm.memcpy.p0.p0.i64(ptr noundef nonnull align 1 dereferenceable(64) %28, ptr noundef nonnull readonly align 1 dereferenceable(64) %2, i64 noundef range(i64 4, 549755813761) 64, i1 noundef false) #9
  %29 = add nuw nsw i64 %.025, 2
  %30 = icmp samesign ult i64 %29, %5
  br i1 %30, label %8, label %31, !llvm.loop !11

31:                                               ; preds = %blkxor.exit23
  ret void
}